target datalayout = "e-m:e-p270:32:32-p271:32:32-p272:64:64-i64:64-i128:128-f80:128-n8:16:32:64-S128"
target triple = "x86_64-pc-linux-gnu"

%struct.jpeg_decompress_struct = type { ptr, ptr, ptr, ptr, i32, i32, ptr, i32, i32, i32, i32, i32, i32, i32, double, i32, i32, i32, i32, i32, i32, i32, i32, i32, i32, i32, i32, i32, i32, i32, i32, i32, i32, ptr, i32, i32, i32, i32, i32, ptr, [4 x ptr], [4 x ptr], [4 x ptr], i32, ptr, i32, i32, [16 x i8], [16 x i8], [16 x i8], i32, i32, i8, i8, i8, i16, i16, i32, i8, i32, ptr, i32, i32, i32, i32, ptr, i32, [4 x ptr], i32, i32, i32, [10 x i32], i32, i32, i32, i32, i32, ptr, ptr, ptr, ptr, ptr, ptr, ptr, ptr, ptr, ptr, ptr }
%struct.jpeg_error_mgr = type { ptr, ptr, ptr, ptr, ptr, i32, %union.anon, i32, i64, ptr, i32, ptr, i32, i32 }
%union.anon = type { [8 x i32], [48 x i8] }
%struct.jpeg_source_mgr = type { ptr, i64, ptr, ptr, ptr, ptr, ptr }

@stderr = external global ptr, align 8
@.str.62 = private unnamed_addr constant [22 x i8] c"Comment, length %ld:\0A\00", align 1
@.str.63 = private unnamed_addr constant [20 x i8] c"APP%d, length %ld:\0A\00", align 1
@.str.64 = private unnamed_addr constant [2 x i8] c"\0A\00", align 1
@.str.65 = private unnamed_addr constant [3 x i8] c"\\\\\00", align 1
@.str.66 = private unnamed_addr constant [6 x i8] c"\\%03o\00", align 1

; Function Attrs: nounwind uwtable
define internal i32 @jpeg_getc(ptr noundef %0) #0 {
  %2 = alloca ptr, align 8
  %3 = alloca ptr, align 8
  store ptr %0, ptr %2, align 8, !tbaa !81
  call void @llvm.lifetime.start.p0(i64 8, ptr %3) #7
  %4 = load ptr, ptr %2, align 8, !tbaa !81
  %5 = getelementptr inbounds nuw %struct.jpeg_decompress_struct, ptr %4, i32 0, i32 6
  %6 = load ptr, ptr %5, align 8, !tbaa !105
  store ptr %6, ptr %3, align 8, !tbaa !106
  %7 = load ptr, ptr %3, align 8, !tbaa !106
  %8 = getelementptr inbounds nuw %struct.jpeg_source_mgr, ptr %7, i32 0, i32 1
  %9 = load i64, ptr %8, align 8, !tbaa !107
  %10 = icmp eq i64 %9, 0
  br i1 %10, label %11, label %30

11:                                               ; preds = %1
  %12 = load ptr, ptr %3, align 8, !tbaa !106
  %13 = getelementptr inbounds nuw %struct.jpeg_source_mgr, ptr %12, i32 0, i32 3
  %14 = load ptr, ptr %13, align 8, !tbaa !109
  %15 = load ptr, ptr %2, align 8, !tbaa !81
  %16 = call i32 %14(ptr noundef %15)
  %17 = icmp ne i32 %16, 0
  br i1 %17, label %29, label %18

18:                                               ; preds = %11
  %19 = load ptr, ptr %2, align 8, !tbaa !81
  %20 = getelementptr inbounds nuw %struct.jpeg_decompress_struct, ptr %19, i32 0, i32 0
  %21 = load ptr, ptr %20, align 8, !tbaa !18
  %22 = getelementptr inbounds nuw %struct.jpeg_error_mgr, ptr %21, i32 0, i32 5
  store i32 24, ptr %22, align 8, !tbaa !53
  %23 = load ptr, ptr %2, align 8, !tbaa !81
  %24 = getelementptr inbounds nuw %struct.jpeg_decompress_struct, ptr %23, i32 0, i32 0
  %25 = load ptr, ptr %24, align 8, !tbaa !18
  %26 = getelementptr inbounds nuw %struct.jpeg_error_mgr, ptr %25, i32 0, i32 0
  %27 = load ptr, ptr %26, align 8, !tbaa !54
  %28 = load ptr, ptr %2, align 8, !tbaa !81
  call void %27(ptr noundef %28)
  br label %29

29:                                               ; preds = %18, %11
  br label %30

30:                                               ; preds = %29, %1
  %31 = load ptr, ptr %3, align 8, !tbaa !106
  %32 = getelementptr inbounds nuw %struct.jpeg_source_mgr, ptr %31, i32 0, i32 1
  %33 = load i64, ptr %32, align 8, !tbaa !107
  %34 = add i64 %33, -1
  store i64 %34, ptr %32, align 8, !tbaa !107
  %35 = load ptr, ptr %3, align 8, !tbaa !106
  %36 = getelementptr inbounds nuw %struct.jpeg_source_mgr, ptr %35, i32 0, i32 0
  %37 = load ptr, ptr %36, align 8, !tbaa !110
  %38 = getelementptr inbounds nuw i8, ptr %37, i32 1
  store ptr %38, ptr %36, align 8, !tbaa !110
  %39 = load i8, ptr %37, align 1, !tbaa !17
  %40 = zext i8 %39 to i32
  call void @llvm.lifetime.end.p0(i64 8, ptr %3) #7
  ret i32 %40
}

; Function Attrs: nounwind uwtable
define internal i32 @print_text_marker(ptr noundef %0) #0 {
  %2 = alloca ptr, align 8
  %3 = alloca i32, align 4
  %4 = alloca i64, align 8
  %5 = alloca i32, align 4
  %6 = alloca i32, align 4
  store ptr %0, ptr %2, align 8, !tbaa !81
  call void @llvm.lifetime.start.p0(i64 4, ptr %3) #7
  %7 = load ptr, ptr %2, align 8, !tbaa !81
  %8 = getelementptr inbounds nuw %struct.jpeg_decompress_struct, ptr %7, i32 0, i32 0
  %9 = load ptr, ptr %8, align 8, !tbaa !18
  %10 = getelementptr inbounds nuw %struct.jpeg_error_mgr, ptr %9, i32 0, i32 7
  %11 = load i32, ptr %10, align 4, !tbaa !83
  %12 = icmp sge i32 %11, 1
  %13 = zext i1 %12 to i32
  store i32 %13, ptr %3, align 4, !tbaa !4
  call void @llvm.lifetime.start.p0(i64 8, ptr %4) #7
  call void @llvm.lifetime.start.p0(i64 4, ptr %5) #7
  call void @llvm.lifetime.start.p0(i64 4, ptr %6) #7
  store i32 0, ptr %6, align 4, !tbaa !4
  %14 = load ptr, ptr %2, align 8, !tbaa !81
  %15 = call i32 @jpeg_getc(ptr noundef %14)
  %16 = shl i32 %15, 8
  %17 = zext i32 %16 to i64
  store i64 %17, ptr %4, align 8, !tbaa !15
  %18 = load ptr, ptr %2, align 8, !tbaa !81
  %19 = call i32 @jpeg_getc(ptr noundef %18)
  %20 = zext i32 %19 to i64
  %21 = load i64, ptr %4, align 8, !tbaa !15
  %22 = add nsw i64 %21, %20
  store i64 %22, ptr %4, align 8, !tbaa !15
  %23 = load i64, ptr %4, align 8, !tbaa !15
  %24 = sub nsw i64 %23, 2
  store i64 %24, ptr %4, align 8, !tbaa !15
  %25 = load i32, ptr %3, align 4, !tbaa !4
  %26 = icmp ne i32 %25, 0
  br i1 %26, label %27, label %45

27:                                               ; preds = %1
  %28 = load ptr, ptr %2, align 8, !tbaa !81
  %29 = getelementptr inbounds nuw %struct.jpeg_decompress_struct, ptr %28, i32 0, i32 76
  %30 = load i32, ptr %29, align 4, !tbaa !84
  %31 = icmp eq i32 %30, 254
  br i1 %31, label %32, label %36

32:                                               ; preds = %27
  %33 = load ptr, ptr @stderr, align 8, !tbaa !44
  %34 = load i64, ptr %4, align 8, !tbaa !15
  %35 = call i32 (ptr, ptr, ...) @fprintf(ptr noundef %33, ptr noundef @.str.62, i64 noundef %34) #7
  br label %44

36:                                               ; preds = %27
  %37 = load ptr, ptr @stderr, align 8, !tbaa !44
  %38 = load ptr, ptr %2, align 8, !tbaa !81
  %39 = getelementptr inbounds nuw %struct.jpeg_decompress_struct, ptr %38, i32 0, i32 76
  %40 = load i32, ptr %39, align 4, !tbaa !84
  %41 = sub nsw i32 %40, 224
  %42 = load i64, ptr %4, align 8, !tbaa !15
  %43 = call i32 (ptr, ptr, ...) @fprintf(ptr noundef %37, ptr noundef @.str.63, i32 noundef %41, i64 noundef %42) #7
  br label %44

44:                                               ; preds = %36, %32
  br label %45

45:                                               ; preds = %44, %1
  br label %46

46:                                               ; preds = %100, %45
  %47 = load i64, ptr %4, align 8, !tbaa !15
  %48 = add nsw i64 %47, -1
  store i64 %48, ptr %4, align 8, !tbaa !15
  %49 = icmp sge i64 %48, 0
  br i1 %49, label %50, label %101

50:                                               ; preds = %46
  %51 = load ptr, ptr %2, align 8, !tbaa !81
  %52 = call i32 @jpeg_getc(ptr noundef %51)
  store i32 %52, ptr %5, align 4, !tbaa !4
  %53 = load i32, ptr %3, align 4, !tbaa !4
  %54 = icmp ne i32 %53, 0
  br i1 %54, label %55, label %100

55:                                               ; preds = %50
  %56 = load i32, ptr %5, align 4, !tbaa !4
  %57 = icmp eq i32 %56, 13
  br i1 %57, label %58, label %61

58:                                               ; preds = %55
  %59 = load ptr, ptr @stderr, align 8, !tbaa !44
  %60 = call i32 (ptr, ptr, ...) @fprintf(ptr noundef %59, ptr noundef @.str.64) #7
  br label %98

61:                                               ; preds = %55
  %62 = load i32, ptr %5, align 4, !tbaa !4
  %63 = icmp eq i32 %62, 10
  br i1 %63, label %64, label %71

64:                                               ; preds = %61
  %65 = load i32, ptr %6, align 4, !tbaa !4
  %66 = icmp ne i32 %65, 13
  br i1 %66, label %67, label %70

67:                                               ; preds = %64
  %68 = load ptr, ptr @stderr, align 8, !tbaa !44
  %69 = call i32 (ptr, ptr, ...) @fprintf(ptr noundef %68, ptr noundef @.str.64) #7
  br label %70

70:                                               ; preds = %67, %64
  br label %97

71:                                               ; preds = %61
  %72 = load i32, ptr %5, align 4, !tbaa !4
  %73 = icmp eq i32 %72, 92
  br i1 %73, label %74, label %77

74:                                               ; preds = %71
  %75 = load ptr, ptr @stderr, align 8, !tbaa !44
  %76 = call i32 (ptr, ptr, ...) @fprintf(ptr noundef %75, ptr noundef @.str.65) #7
  br label %96

77:                                               ; preds = %71
  %78 = call ptr @__ctype_b_loc() #10
  %79 = load ptr, ptr %78, align 8, !tbaa !85
  %80 = load i32, ptr %5, align 4, !tbaa !4
  %81 = sext i32 %80 to i64
  %82 = getelementptr inbounds i16, ptr %79, i64 %81
  %83 = load i16, ptr %82, align 2, !tbaa !87
  %84 = zext i16 %83 to i32
  %85 = and i32 %84, 16384
  %86 = icmp ne i32 %85, 0
  br i1 %86, label %87, label %91

87:                                               ; preds = %77
  %88 = load i32, ptr %5, align 4, !tbaa !4
  %89 = load ptr, ptr @stderr, align 8, !tbaa !44
  %90 = call i32 @putc(i32 noundef %88, ptr noundef %89)
  br label %95

91:                                               ; preds = %77
  %92 = load ptr, ptr @stderr, align 8, !tbaa !44
  %93 = load i32, ptr %5, align 4, !tbaa !4
  %94 = call i32 (ptr, ptr, ...) @fprintf(ptr noundef %92, ptr noundef @.str.66, i32 noundef %93) #7
  br label %95

95:                                               ; preds = %91, %87
  br label %96

96:                                               ; preds = %95, %74
  br label %97

97:                                               ; preds = %96, %70
  br label %98

98:                                               ; preds = %97, %58
  %99 = load i32, ptr %5, align 4, !tbaa !4
  store i32 %99, ptr %6, align 4, !tbaa !4
  br label %100

100:                                              ; preds = %98, %50
  br label %46, !llvm.loop !88

101:                                              ; preds = %46
  %102 = load i32, ptr %3, align 4, !tbaa !4
  %103 = icmp ne i32 %102, 0
  br i1 %103, label %104, label %107

104:                                              ; preds = %101
  %105 = load ptr, ptr @stderr, align 8, !tbaa !44
  %106 = call i32 (ptr, ptr, ...) @fprintf(ptr noundef %105, ptr noundef @.str.64) #7
  br label %107

107:                                              ; preds = %104, %101
  call void @llvm.lifetime.end.p0(i64 4, ptr %6) #7
  call void @llvm.lifetime.end.p0(i64 4, ptr %5) #7
  call void @llvm.lifetime.end.p0(i64 8, ptr %4) #7
  call void @llvm.lifetime.end.p0(i64 4, ptr %3) #7
  ret i32 1
}