; Function Attrs: nounwind uwtable
define internal noundef i32 @print_text_marker(ptr noundef %0) #3 {
  %2 = load ptr, ptr %0, align 8, !tbaa !10
  %3 = getelementptr inbounds nuw i8, ptr %2, i64 124
  %4 = load i32, ptr %3, align 4, !tbaa !77
  %5 = icmp sgt i32 %4, 0
  %6 = getelementptr inbounds nuw i8, ptr %0, i64 40
  %7 = load ptr, ptr %6, align 8, !tbaa !78
  %8 = getelementptr inbounds nuw i8, ptr %7, i64 8
  %9 = load i64, ptr %8, align 8, !tbaa !79
  %10 = icmp eq i64 %9, 0
  br i1 %10, label %11, label %jpeg_getc.exit

11:                                               ; preds = %1
  %12 = getelementptr inbounds nuw i8, ptr %7, i64 24
  %13 = load ptr, ptr %12, align 8, !tbaa !81
  %14 = tail call i32 %13(ptr noundef nonnull %0) #12
  %.not.i = icmp eq i32 %14, 0
  br i1 %.not.i, label %15, label %jpeg_getc.exit

15:                                               ; preds = %11
  %16 = load ptr, ptr %0, align 8, !tbaa !10
  %17 = getelementptr inbounds nuw i8, ptr %16, i64 40
  store i32 24, ptr %17, align 8, !tbaa !49
  %18 = load ptr, ptr %16, align 8, !tbaa !50
  tail call void %18(ptr noundef nonnull %0) #12
  br label %jpeg_getc.exit

jpeg_getc.exit:                                   ; preds = %1, %11, %15
  %19 = load i64, ptr %8, align 8, !tbaa !79
  %20 = add i64 %19, -1
  store i64 %20, ptr %8, align 8, !tbaa !79
  %21 = load ptr, ptr %7, align 8, !tbaa !82
  %22 = getelementptr inbounds nuw i8, ptr %21, i64 1
  store ptr %22, ptr %7, align 8, !tbaa !82
  %23 = load i8, ptr %21, align 1, !tbaa !9
  %24 = zext i8 %23 to i64
  %25 = shl nuw nsw i64 %24, 8
  %26 = load ptr, ptr %6, align 8, !tbaa !78
  %27 = getelementptr inbounds nuw i8, ptr %26, i64 8
  %28 = load i64, ptr %27, align 8, !tbaa !79
  %29 = icmp eq i64 %28, 0
  br i1 %29, label %30, label %jpeg_getc.exit29

30:                                               ; preds = %jpeg_getc.exit
  %31 = getelementptr inbounds nuw i8, ptr %26, i64 24
  %32 = load ptr, ptr %31, align 8, !tbaa !81
  %33 = tail call i32 %32(ptr noundef nonnull %0) #12
  %.not.i28 = icmp eq i32 %33, 0
  br i1 %.not.i28, label %34, label %jpeg_getc.exit29

34:                                               ; preds = %30
  %35 = load ptr, ptr %0, align 8, !tbaa !10
  %36 = getelementptr inbounds nuw i8, ptr %35, i64 40
  store i32 24, ptr %36, align 8, !tbaa !49
  %37 = load ptr, ptr %35, align 8, !tbaa !50
  tail call void %37(ptr noundef nonnull %0) #12
  br label %jpeg_getc.exit29

jpeg_getc.exit29:                                 ; preds = %jpeg_getc.exit, %30, %34
  %38 = load i64, ptr %27, align 8, !tbaa !79
  %39 = add i64 %38, -1
  store i64 %39, ptr %27, align 8, !tbaa !79
  %40 = load ptr, ptr %26, align 8, !tbaa !82
  %41 = getelementptr inbounds nuw i8, ptr %40, i64 1
  store ptr %41, ptr %26, align 8, !tbaa !82
  %42 = load i8, ptr %40, align 1, !tbaa !9
  %43 = zext i8 %42 to i64
  %44 = or disjoint i64 %25, %43
  %45 = add nsw i64 %44, -2
  br i1 %5, label %46, label %.thread

46:                                               ; preds = %jpeg_getc.exit29
  %47 = getelementptr inbounds nuw i8, ptr %0, i64 540
  %48 = load i32, ptr %47, align 4, !tbaa !83
  %49 = icmp eq i32 %48, 254
  %50 = load ptr, ptr @stderr, align 8, !tbaa !39
  br i1 %49, label %51, label %53

51:                                               ; preds = %46
  %52 = tail call i32 (ptr, ptr, ...) @fprintf(ptr noundef %50, ptr noundef nonnull @.str.62, i64 noundef %45) #13
  br label %56

53:                                               ; preds = %46
  %54 = add nsw i32 %48, -224
  %55 = tail call i32 (ptr, ptr, ...) @fprintf(ptr noundef %50, ptr noundef nonnull @.str.63, i32 noundef %54, i64 noundef %45) #13
  br label %56

56:                                               ; preds = %51, %53
  %57 = icmp samesign ugt i64 %44, 2
  br i1 %57, label %.lr.ph, label %._crit_edge

.thread:                                          ; preds = %jpeg_getc.exit29
  %58 = icmp samesign ugt i64 %44, 2
  br i1 %58, label %.lr.ph.split.preheader, label %._crit_edge.thread

.lr.ph:                                           ; preds = %56
  %59 = add nsw i64 %44, -3
  br label %.lr.ph.split.us

.lr.ph.split.preheader:                           ; preds = %.thread
  %60 = add nsw i64 %44, -3
  br label %.lr.ph.split

.lr.ph.split.us:                                  ; preds = %.lr.ph, %100
  %61 = phi i64 [ %101, %100 ], [ %59, %.lr.ph ]
  %.032.us = phi i32 [ %79, %100 ], [ 0, %.lr.ph ]
  %62 = load ptr, ptr %6, align 8, !tbaa !78
  %63 = getelementptr inbounds nuw i8, ptr %62, i64 8
  %64 = load i64, ptr %63, align 8, !tbaa !79
  %65 = icmp eq i64 %64, 0
  br i1 %65, label %66, label %jpeg_getc.exit31.us

66:                                               ; preds = %.lr.ph.split.us
  %67 = getelementptr inbounds nuw i8, ptr %62, i64 24
  %68 = load ptr, ptr %67, align 8, !tbaa !81
  %69 = tail call i32 %68(ptr noundef nonnull %0) #12
  %.not.i30.us = icmp eq i32 %69, 0
  br i1 %.not.i30.us, label %70, label %jpeg_getc.exit31.us

70:                                               ; preds = %66
  %71 = load ptr, ptr %0, align 8, !tbaa !10
  %72 = getelementptr inbounds nuw i8, ptr %71, i64 40
  store i32 24, ptr %72, align 8, !tbaa !49
  %73 = load ptr, ptr %71, align 8, !tbaa !50
  tail call void %73(ptr noundef nonnull %0) #12
  br label %jpeg_getc.exit31.us

jpeg_getc.exit31.us:                              ; preds = %70, %66, %.lr.ph.split.us
  %74 = load i64, ptr %63, align 8, !tbaa !79
  %75 = add i64 %74, -1
  store i64 %75, ptr %63, align 8, !tbaa !79
  %76 = load ptr, ptr %62, align 8, !tbaa !82
  %77 = getelementptr inbounds nuw i8, ptr %76, i64 1
  store ptr %77, ptr %62, align 8, !tbaa !82
  %78 = load i8, ptr %76, align 1, !tbaa !9
  %79 = zext i8 %78 to i32
  switch i8 %78, label %88 [
    i8 13, label %86
    i8 10, label %83
    i8 92, label %80
  ]

80:                                               ; preds = %jpeg_getc.exit31.us
  %81 = load ptr, ptr @stderr, align 8, !tbaa !39
  %82 = tail call i64 @fwrite(ptr nonnull @.str.65, i64 2, i64 1, ptr %81) #17
  br label %100

83:                                               ; preds = %jpeg_getc.exit31.us
  %.not25.us = icmp eq i32 %.032.us, 13
  br i1 %.not25.us, label %100, label %84

84:                                               ; preds = %83
  %85 = load ptr, ptr @stderr, align 8, !tbaa !39
  %fputc26.us = tail call i32 @fputc(i32 10, ptr %85)
  br label %100

86:                                               ; preds = %jpeg_getc.exit31.us
  %87 = load ptr, ptr @stderr, align 8, !tbaa !39
  %fputc27.us = tail call i32 @fputc(i32 10, ptr %87)
  br label %100

88:                                               ; preds = %jpeg_getc.exit31.us
  %89 = tail call ptr @__ctype_b_loc() #18
  %90 = load ptr, ptr %89, align 8, !tbaa !84
  %91 = zext i8 %78 to i64
  %92 = getelementptr inbounds nuw i16, ptr %90, i64 %91
  %93 = load i16, ptr %92, align 2, !tbaa !86
  %94 = and i16 %93, 16384
  %.not.us = icmp eq i16 %94, 0
  %95 = load ptr, ptr @stderr, align 8, !tbaa !39
  br i1 %.not.us, label %98, label %96

96:                                               ; preds = %88
  %97 = tail call i32 @putc(i32 noundef %79, ptr noundef %95)
  br label %100

98:                                               ; preds = %88
  %99 = tail call i32 (ptr, ptr, ...) @fprintf(ptr noundef %95, ptr noundef nonnull @.str.66, i32 noundef %79) #13
  br label %100

100:                                              ; preds = %98, %96, %86, %84, %83, %80
  %101 = add nsw i64 %61, -1
  %102 = icmp sgt i64 %61, 0
  br i1 %102, label %.lr.ph.split.us, label %._crit_edge, !llvm.loop !87

.lr.ph.split:                                     ; preds = %.lr.ph.split.preheader, %jpeg_getc.exit31
  %103 = phi i64 [ %120, %jpeg_getc.exit31 ], [ %60, %.lr.ph.split.preheader ]
  %104 = load ptr, ptr %6, align 8, !tbaa !78
  %105 = getelementptr inbounds nuw i8, ptr %104, i64 8
  %106 = load i64, ptr %105, align 8, !tbaa !79
  %107 = icmp eq i64 %106, 0
  br i1 %107, label %108, label %jpeg_getc.exit31

108:                                              ; preds = %.lr.ph.split
  %109 = getelementptr inbounds nuw i8, ptr %104, i64 24
  %110 = load ptr, ptr %109, align 8, !tbaa !81
  %111 = tail call i32 %110(ptr noundef nonnull %0) #12
  %.not.i30 = icmp eq i32 %111, 0
  br i1 %.not.i30, label %112, label %jpeg_getc.exit31

112:                                              ; preds = %108
  %113 = load ptr, ptr %0, align 8, !tbaa !10
  %114 = getelementptr inbounds nuw i8, ptr %113, i64 40
  store i32 24, ptr %114, align 8, !tbaa !49
  %115 = load ptr, ptr %113, align 8, !tbaa !50
  tail call void %115(ptr noundef nonnull %0) #12
  br label %jpeg_getc.exit31

jpeg_getc.exit31:                                 ; preds = %.lr.ph.split, %108, %112
  %116 = load i64, ptr %105, align 8, !tbaa !79
  %117 = add i64 %116, -1
  store i64 %117, ptr %105, align 8, !tbaa !79
  %118 = load ptr, ptr %104, align 8, !tbaa !82
  %119 = getelementptr inbounds nuw i8, ptr %118, i64 1
  store ptr %119, ptr %104, align 8, !tbaa !82
  %120 = add nsw i64 %103, -1
  %121 = icmp sgt i64 %103, 0
  br i1 %121, label %.lr.ph.split, label %._crit_edge, !llvm.loop !87

._crit_edge:                                      ; preds = %jpeg_getc.exit31, %100, %56
  br i1 %5, label %122, label %._crit_edge.thread

122:                                              ; preds = %._crit_edge
  %123 = load ptr, ptr @stderr, align 8, !tbaa !39
  %fputc = tail call i32 @fputc(i32 10, ptr %123)
  br label %._crit_edge.thread

._crit_edge.thread:                               ; preds = %.thread, %122, %._crit_edge
  ret i32 1
}